target datalayout = "e-m:e-p270:32:32-p271:32:32-p272:64:64-i64:64-i128:128-f80:128-n8:16:32:64-S128"
target triple = "x86_64-pc-linux-gnu"

%"struct.std::_List_iterator" = type { ptr }
%"class.base::BasicStringPiece" = type { ptr, i64 }
%"class.net::SpdyHeaderBlock::StringPieceProxy" = type <{ ptr, ptr, %"struct.std::_List_iterator", %"class.base::BasicStringPiece", i8, [7 x i8] }>

; Function Attrs: mustprogress nounwind uwtable
define void @_ZN3net15SpdyHeaderBlock16StringPieceProxyC2EOS1_(ptr noundef nonnull align 8 dereferenceable(41) %0, ptr noundef nonnull align 8 dereferenceable(41) %1) unnamed_addr #0 align 2 {
  %3 = alloca ptr, align 8
  %4 = alloca ptr, align 8
  store ptr %0, ptr %3, align 8, !tbaa !3
  store ptr %1, ptr %4, align 8, !tbaa !3
  %5 = load ptr, ptr %3, align 8
  %6 = getelementptr inbounds nuw %"class.net::SpdyHeaderBlock::StringPieceProxy", ptr %5, i32 0, i32 0
  %7 = load ptr, ptr %4, align 8, !tbaa !3
  %8 = getelementptr inbounds nuw %"class.net::SpdyHeaderBlock::StringPieceProxy", ptr %7, i32 0, i32 0
  %9 = load ptr, ptr %8, align 8, !tbaa !12
  store ptr %9, ptr %6, align 8, !tbaa !12
  %10 = getelementptr inbounds nuw %"class.net::SpdyHeaderBlock::StringPieceProxy", ptr %5, i32 0, i32 1
  %11 = load ptr, ptr %4, align 8, !tbaa !3
  %12 = getelementptr inbounds nuw %"class.net::SpdyHeaderBlock::StringPieceProxy", ptr %11, i32 0, i32 1
  %13 = load ptr, ptr %12, align 8, !tbaa !20
  store ptr %13, ptr %10, align 8, !tbaa !20
  %14 = getelementptr inbounds nuw %"class.net::SpdyHeaderBlock::StringPieceProxy", ptr %5, i32 0, i32 2
  %15 = load ptr, ptr %4, align 8, !tbaa !3
  %16 = getelementptr inbounds nuw %"class.net::SpdyHeaderBlock::StringPieceProxy", ptr %15, i32 0, i32 2
  call void @llvm.memcpy.p0.p0.i64(ptr align 8 %14, ptr align 8 %16, i64 8, i1 false), !tbaa.struct !21
  %17 = getelementptr inbounds nuw %"class.net::SpdyHeaderBlock::StringPieceProxy", ptr %5, i32 0, i32 3
  %18 = load ptr, ptr %4, align 8, !tbaa !3
  %19 = getelementptr inbounds nuw %"class.net::SpdyHeaderBlock::StringPieceProxy", ptr %18, i32 0, i32 3
  call void @llvm.memcpy.p0.p0.i64(ptr align 8 %17, ptr align 8 %19, i64 16, i1 false), !tbaa.struct !23
  %20 = getelementptr inbounds nuw %"class.net::SpdyHeaderBlock::StringPieceProxy", ptr %5, i32 0, i32 4
  store i8 1, ptr %20, align 8, !tbaa !26
  %21 = load ptr, ptr %4, align 8, !tbaa !3
  %22 = getelementptr inbounds nuw %"class.net::SpdyHeaderBlock::StringPieceProxy", ptr %21, i32 0, i32 4
  store i8 0, ptr %22, align 8, !tbaa !26
  ret void
}